target datalayout = "e-m:e-p270:32:32-p271:32:32-p272:64:64-i64:64-i128:128-f80:128-n8:16:32:64-S128"
target triple = "x86_64-pc-linux-gnu"

%struct._packet_info = type { ptr, ptr, i32, i32, %struct.nstime_t, %struct.nstime_t, %struct.nstime_t, i8, ptr, ptr, ptr, ptr, %struct._address, %struct._address, %struct._address, %struct._address, %struct._address, %struct._address, i32, ptr, i8, [3 x i8], %struct.anon, i32, i32, i32, i32, ptr, i8, ptr, ptr, i16, i16, i32, i32, i16, i32, i32, ptr, ptr, ptr, i8, i8, i16, i16, i16, i32, i16, i16, ptr, ptr, ptr, ptr, ptr, i32, i32 }
%struct.nstime_t = type { i64, i32 }
%struct._address = type { i32, i32, ptr, ptr }
%struct.anon = type { i8, [3 x i8] }

@hf_cpms_mem1 = internal global i32 0, align 4
@hf_cpms_mem2 = internal global i32 0, align 4
@hf_cpms_mem3 = internal global i32 0, align 4
@hf_cpms_total1 = internal global i32 0, align 4
@hf_cpms_total2 = internal global i32 0, align 4
@hf_cpms_total3 = internal global i32 0, align 4
@hf_cpms_used1 = internal global i32 0, align 4
@hf_cpms_used2 = internal global i32 0, align 4
@hf_cpms_used3 = internal global i32 0, align 4

; Function Attrs: alwaysinline nounwind
define internal ptr @memcpy.inline(ptr noalias %0, ptr noalias %1, i64 %2) #9 {
  %4 = alloca ptr, align 8
  %5 = alloca ptr, align 8
  %6 = alloca i64, align 8
  store ptr %0, ptr %4, align 8
  store ptr %1, ptr %5, align 8
  store i64 %2, ptr %6, align 8
  %7 = load ptr, ptr %4, align 8
  %8 = load ptr, ptr %5, align 8
  %9 = load i64, ptr %6, align 8
  %10 = load ptr, ptr %4, align 8
  %11 = call i64 @llvm.objectsize.i64.p0(ptr %10, i1 false, i1 true, i1 true)
  %12 = call ptr @__memcpy_chk(ptr noundef %7, ptr noundef %8, i64 noundef %9, i64 noundef %11) #12
  ret ptr %12
}

; Function Attrs: null_pointer_is_valid sspstrong uwtable
define internal i32 @get_uint_parameter(ptr noundef %0, ptr noundef %1, i32 noundef %2) #0 {
  %4 = alloca ptr, align 8
  %5 = alloca ptr, align 8
  %6 = alloca i32, align 4
  %7 = alloca i32, align 4
  %8 = alloca ptr, align 8
  store ptr %0, ptr %4, align 8
  store ptr %1, ptr %5, align 8
  store i32 %2, ptr %6, align 4
  call void @llvm.lifetime.start.p0(i64 4, ptr %7) #12
  call void @llvm.lifetime.start.p0(i64 8, ptr %8) #12
  %9 = load ptr, ptr %4, align 8
  %10 = load i32, ptr %6, align 4
  %11 = add i32 %10, 1
  %12 = sext i32 %11 to i64
  %13 = call noalias ptr @wmem_alloc(ptr noundef %9, i64 noundef %12) #13
  store ptr %13, ptr %8, align 8
  %14 = load ptr, ptr %8, align 8
  %15 = load ptr, ptr %5, align 8
  %16 = load i32, ptr %6, align 4
  %17 = sext i32 %16 to i64
  %18 = call ptr @memcpy.inline(ptr noundef %14, ptr noundef %15, i64 noundef %17) #12
  %19 = load ptr, ptr %8, align 8
  %20 = load i32, ptr %6, align 4
  %21 = sext i32 %20 to i64
  %22 = getelementptr i8, ptr %19, i64 %21
  store i8 0, ptr %22, align 1
  %23 = load ptr, ptr %8, align 8
  %24 = call i64 @g_ascii_strtoull(ptr noundef %23, ptr noundef null, i32 noundef 10)
  %25 = trunc i64 %24 to i32
  store i32 %25, ptr %7, align 4
  %26 = load i32, ptr %7, align 4
  call void @llvm.lifetime.end.p0(i64 8, ptr %8) #12
  call void @llvm.lifetime.end.p0(i64 4, ptr %7) #12
  ret i32 %26
}

; Function Attrs: null_pointer_is_valid sspstrong uwtable
define internal zeroext i1 @dissect_cpms_parameter(ptr noundef %0, ptr noundef %1, ptr noundef %2, i32 noundef %3, i32 noundef %4, i16 noundef zeroext %5, ptr noundef %6, i32 noundef %7, i32 noundef %8, ptr noundef %9, ptr noundef %10) #0 {
  %12 = alloca i1, align 1
  %13 = alloca ptr, align 8
  %14 = alloca ptr, align 8
  %15 = alloca ptr, align 8
  %16 = alloca i32, align 4
  %17 = alloca i32, align 4
  %18 = alloca i16, align 2
  %19 = alloca ptr, align 8
  %20 = alloca i32, align 4
  %21 = alloca i32, align 4
  %22 = alloca ptr, align 8
  %23 = alloca ptr, align 8
  %24 = alloca i32, align 4
  %25 = alloca i32, align 4
  store ptr %0, ptr %13, align 8
  store ptr %1, ptr %14, align 8
  store ptr %2, ptr %15, align 8
  store i32 %3, ptr %16, align 4
  store i32 %4, ptr %17, align 4
  store i16 %5, ptr %18, align 2
  store ptr %6, ptr %19, align 8
  store i32 %7, ptr %20, align 4
  store i32 %8, ptr %21, align 4
  store ptr %9, ptr %22, align 8
  store ptr %10, ptr %23, align 8
  call void @llvm.lifetime.start.p0(i64 4, ptr %24) #12
  %26 = load i32, ptr %17, align 4
  %27 = icmp eq i32 %26, 2
  br i1 %27, label %28, label %32

28:                                               ; preds = %11
  %29 = load i16, ptr %18, align 2
  %30 = zext i16 %29 to i32
  %31 = icmp eq i32 %30, 61
  br i1 %31, label %40, label %32

32:                                               ; preds = %28, %11
  %33 = load i32, ptr %17, align 4
  %34 = icmp eq i32 %33, 1
  br i1 %34, label %35, label %39

35:                                               ; preds = %32
  %36 = load i16, ptr %18, align 2
  %37 = zext i16 %36 to i32
  %38 = icmp eq i32 %37, 58
  br i1 %38, label %40, label %39

39:                                               ; preds = %35, %32
  store i1 false, ptr %12, align 1
  store i32 1, ptr %25, align 4
  br label %127

40:                                               ; preds = %35, %28
  %41 = load i16, ptr %18, align 2
  %42 = zext i16 %41 to i32
  %43 = icmp eq i32 %42, 61
  br i1 %43, label %44, label %69

44:                                               ; preds = %40
  %45 = load i32, ptr %20, align 4
  switch i32 %45, label %67 [
    i32 0, label %46
    i32 1, label %53
    i32 2, label %60
  ]

46:                                               ; preds = %44
  %47 = load ptr, ptr %15, align 8
  %48 = load i32, ptr @hf_cpms_mem1, align 4
  %49 = load ptr, ptr %13, align 8
  %50 = load i32, ptr %16, align 4
  %51 = load i32, ptr %21, align 4
  %52 = call ptr @proto_tree_add_item(ptr noundef %47, i32 noundef %48, ptr noundef %49, i32 noundef %50, i32 noundef %51, i32 noundef 0)
  br label %68

53:                                               ; preds = %44
  %54 = load ptr, ptr %15, align 8
  %55 = load i32, ptr @hf_cpms_mem2, align 4
  %56 = load ptr, ptr %13, align 8
  %57 = load i32, ptr %16, align 4
  %58 = load i32, ptr %21, align 4
  %59 = call ptr @proto_tree_add_item(ptr noundef %54, i32 noundef %55, ptr noundef %56, i32 noundef %57, i32 noundef %58, i32 noundef 0)
  br label %68

60:                                               ; preds = %44
  %61 = load ptr, ptr %15, align 8
  %62 = load i32, ptr @hf_cpms_mem3, align 4
  %63 = load ptr, ptr %13, align 8
  %64 = load i32, ptr %16, align 4
  %65 = load i32, ptr %21, align 4
  %66 = call ptr @proto_tree_add_item(ptr noundef %61, i32 noundef %62, ptr noundef %63, i32 noundef %64, i32 noundef %65, i32 noundef 0)
  br label %68

67:                                               ; preds = %44
  store i1 false, ptr %12, align 1
  store i32 1, ptr %25, align 4
  br label %127

68:                                               ; preds = %60, %53, %46
  store i1 true, ptr %12, align 1
  store i32 1, ptr %25, align 4
  br label %127

69:                                               ; preds = %40
  %70 = load ptr, ptr %14, align 8
  %71 = getelementptr inbounds nuw %struct._packet_info, ptr %70, i32 0, i32 51
  %72 = load ptr, ptr %71, align 8
  %73 = load ptr, ptr %19, align 8
  %74 = load i32, ptr %21, align 4
  %75 = call i32 @get_uint_parameter(ptr noundef %72, ptr noundef %73, i32 noundef %74)
  store i32 %75, ptr %24, align 4
  %76 = load i32, ptr %20, align 4
  switch i32 %76, label %125 [
    i32 0, label %77
    i32 1, label %85
    i32 2, label %93
    i32 3, label %101
    i32 4, label %109
    i32 5, label %117
  ]

77:                                               ; preds = %69
  %78 = load ptr, ptr %15, align 8
  %79 = load i32, ptr @hf_cpms_used1, align 4
  %80 = load ptr, ptr %13, align 8
  %81 = load i32, ptr %16, align 4
  %82 = load i32, ptr %21, align 4
  %83 = load i32, ptr %24, align 4
  %84 = call ptr @proto_tree_add_uint(ptr noundef %78, i32 noundef %79, ptr noundef %80, i32 noundef %81, i32 noundef %82, i32 noundef %83)
  br label %126

85:                                               ; preds = %69
  %86 = load ptr, ptr %15, align 8
  %87 = load i32, ptr @hf_cpms_total1, align 4
  %88 = load ptr, ptr %13, align 8
  %89 = load i32, ptr %16, align 4
  %90 = load i32, ptr %21, align 4
  %91 = load i32, ptr %24, align 4
  %92 = call ptr @proto_tree_add_uint(ptr noundef %86, i32 noundef %87, ptr noundef %88, i32 noundef %89, i32 noundef %90, i32 noundef %91)
  br label %126

93:                                               ; preds = %69
  %94 = load ptr, ptr %15, align 8
  %95 = load i32, ptr @hf_cpms_used2, align 4
  %96 = load ptr, ptr %13, align 8
  %97 = load i32, ptr %16, align 4
  %98 = load i32, ptr %21, align 4
  %99 = load i32, ptr %24, align 4
  %100 = call ptr @proto_tree_add_uint(ptr noundef %94, i32 noundef %95, ptr noundef %96, i32 noundef %97, i32 noundef %98, i32 noundef %99)
  br label %126

101:                                              ; preds = %69
  %102 = load ptr, ptr %15, align 8
  %103 = load i32, ptr @hf_cpms_total2, align 4
  %104 = load ptr, ptr %13, align 8
  %105 = load i32, ptr %16, align 4
  %106 = load i32, ptr %21, align 4
  %107 = load i32, ptr %24, align 4
  %108 = call ptr @proto_tree_add_uint(ptr noundef %102, i32 noundef %103, ptr noundef %104, i32 noundef %105, i32 noundef %106, i32 noundef %107)
  br label %126

109:                                              ; preds = %69
  %110 = load ptr, ptr %15, align 8
  %111 = load i32, ptr @hf_cpms_used3, align 4
  %112 = load ptr, ptr %13, align 8
  %113 = load i32, ptr %16, align 4
  %114 = load i32, ptr %21, align 4
  %115 = load i32, ptr %24, align 4
  %116 = call ptr @proto_tree_add_uint(ptr noundef %110, i32 noundef %111, ptr noundef %112, i32 noundef %113, i32 noundef %114, i32 noundef %115)
  br label %126

117:                                              ; preds = %69
  %118 = load ptr, ptr %15, align 8
  %119 = load i32, ptr @hf_cpms_total3, align 4
  %120 = load ptr, ptr %13, align 8
  %121 = load i32, ptr %16, align 4
  %122 = load i32, ptr %21, align 4
  %123 = load i32, ptr %24, align 4
  %124 = call ptr @proto_tree_add_uint(ptr noundef %118, i32 noundef %119, ptr noundef %120, i32 noundef %121, i32 noundef %122, i32 noundef %123)
  br label %126

125:                                              ; preds = %69
  store i1 false, ptr %12, align 1
  store i32 1, ptr %25, align 4
  br label %127

126:                                              ; preds = %117, %109, %101, %93, %85, %77
  store i1 true, ptr %12, align 1
  store i32 1, ptr %25, align 4
  br label %127

127:                                              ; preds = %126, %125, %68, %67, %39
  call void @llvm.lifetime.end.p0(i64 4, ptr %24) #12
  %128 = load i1, ptr %12, align 1
  ret i1 %128
}