; Function Attrs: null_pointer_is_valid sspstrong uwtable
define internal noundef zeroext i1 @dissect_cpms_parameter(ptr noundef %0, ptr noundef readonly captures(none) %1, ptr noundef %2, i32 noundef %3, i32 noundef %4, i16 noundef zeroext %5, ptr noundef readonly captures(none) %6, i32 noundef %7, i32 noundef %8, ptr readnone captures(none) %9, ptr readnone captures(none) %10) #0 {
  %12 = icmp eq i32 %4, 2
  %13 = icmp eq i16 %5, 61
  %or.cond = and i1 %12, %13
  br i1 %or.cond, label %17, label %14

14:                                               ; preds = %11
  %15 = icmp eq i32 %4, 1
  %16 = icmp eq i16 %5, 58
  %or.cond5 = and i1 %15, %16
  br i1 %or.cond5, label %27, label %57

17:                                               ; preds = %11
  switch i32 %7, label %57 [
    i32 0, label %18
    i32 1, label %21
    i32 2, label %24
  ]

18:                                               ; preds = %17
  %19 = load i32, ptr @hf_cpms_mem1, align 4
  %20 = tail call ptr @proto_tree_add_item(ptr noundef %2, i32 noundef %19, ptr noundef %0, i32 noundef %3, i32 noundef %8, i32 noundef 0)
  br label %57

21:                                               ; preds = %17
  %22 = load i32, ptr @hf_cpms_mem2, align 4
  %23 = tail call ptr @proto_tree_add_item(ptr noundef %2, i32 noundef %22, ptr noundef %0, i32 noundef %3, i32 noundef %8, i32 noundef 0)
  br label %57

24:                                               ; preds = %17
  %25 = load i32, ptr @hf_cpms_mem3, align 4
  %26 = tail call ptr @proto_tree_add_item(ptr noundef %2, i32 noundef %25, ptr noundef %0, i32 noundef %3, i32 noundef %8, i32 noundef 0)
  br label %57

27:                                               ; preds = %14
  %28 = getelementptr inbounds nuw i8, ptr %1, i64 408
  %29 = load ptr, ptr %28, align 8
  %30 = add i32 %8, 1
  %31 = sext i32 %30 to i64
  %32 = tail call noalias ptr @wmem_alloc(ptr noundef %29, i64 noundef %31) #12
  %33 = sext i32 %8 to i64
  %34 = icmp ne i32 %30, -1
  tail call void @llvm.assume(i1 %34)
  %35 = tail call ptr @__memcpy_chk(ptr noundef %32, ptr noundef readonly %6, i64 noundef range(i64 -2147483648, 2147483648) %33, i64 noundef %31) #13, !alias.scope !131
  %36 = getelementptr i8, ptr %32, i64 %33
  store i8 0, ptr %36, align 1
  %37 = tail call i64 @g_ascii_strtoull(ptr noundef %32, ptr noundef null, i32 noundef 10)
  %38 = trunc i64 %37 to i32
  switch i32 %7, label %57 [
    i32 0, label %39
    i32 1, label %42
    i32 2, label %45
    i32 3, label %48
    i32 4, label %51
    i32 5, label %54
  ]

39:                                               ; preds = %27
  %40 = load i32, ptr @hf_cpms_used1, align 4
  %41 = tail call ptr @proto_tree_add_uint(ptr noundef %2, i32 noundef %40, ptr noundef %0, i32 noundef %3, i32 noundef %8, i32 noundef %38)
  br label %57

42:                                               ; preds = %27
  %43 = load i32, ptr @hf_cpms_total1, align 4
  %44 = tail call ptr @proto_tree_add_uint(ptr noundef %2, i32 noundef %43, ptr noundef %0, i32 noundef %3, i32 noundef %8, i32 noundef %38)
  br label %57

45:                                               ; preds = %27
  %46 = load i32, ptr @hf_cpms_used2, align 4
  %47 = tail call ptr @proto_tree_add_uint(ptr noundef %2, i32 noundef %46, ptr noundef %0, i32 noundef %3, i32 noundef %8, i32 noundef %38)
  br label %57

48:                                               ; preds = %27
  %49 = load i32, ptr @hf_cpms_total2, align 4
  %50 = tail call ptr @proto_tree_add_uint(ptr noundef %2, i32 noundef %49, ptr noundef %0, i32 noundef %3, i32 noundef %8, i32 noundef %38)
  br label %57

51:                                               ; preds = %27
  %52 = load i32, ptr @hf_cpms_used3, align 4
  %53 = tail call ptr @proto_tree_add_uint(ptr noundef %2, i32 noundef %52, ptr noundef %0, i32 noundef %3, i32 noundef %8, i32 noundef %38)
  br label %57

54:                                               ; preds = %27
  %55 = load i32, ptr @hf_cpms_total3, align 4
  %56 = tail call ptr @proto_tree_add_uint(ptr noundef %2, i32 noundef %55, ptr noundef %0, i32 noundef %3, i32 noundef %8, i32 noundef %38)
  br label %57

57:                                               ; preds = %39, %42, %45, %48, %51, %54, %27, %18, %21, %24, %17, %14
  %.0 = phi i1 [ false, %14 ], [ false, %17 ], [ true, %24 ], [ true, %21 ], [ true, %18 ], [ false, %27 ], [ true, %54 ], [ true, %51 ], [ true, %48 ], [ true, %45 ], [ true, %42 ], [ true, %39 ]
  ret i1 %.0
}